; ModuleID = '56/1810.c'
source_filename = "56/1810.c"
target datalayout = "e-m:e-p270:32:32-p271:32:32-p272:64:64-i64:64-f80:128-n8:16:32:64-S128"
target triple = "x86_64-pc-linux-gnu"

@.str = private unnamed_addr constant [3 x i8] c"%d\00", align 1
@.str.1 = private unnamed_addr constant [4 x i8] c"%d\0A\00", align 1

; Function Attrs: noinline nounwind uwtable
define dso_local void @main() #0 {
  %1 = alloca i32, align 4
  %2 = alloca i32, align 4
  %3 = alloca i32, align 4
  %4 = alloca i32, align 4
  %5 = alloca i32, align 4
  %6 = alloca i32, align 4
  %7 = call i32 (i8*, ...) @__isoc99_scanf(i8* getelementptr inbounds ([3 x i8], [3 x i8]* @.str, i64 0, i64 0), i32* %1)
  %8 = load i32, i32* %1, align 4
  %9 = sdiv i32 %8, 10000
  store i32 %9, i32* %6, align 4
  %10 = load i32, i32* %1, align 4
  %11 = load i32, i32* %6, align 4
  %12 = mul nsw i32 %11, 10000
  %13 = sub nsw i32 %10, %12
  %14 = sdiv i32 %13, 1000
  store i32 %14, i32* %5, align 4
  %15 = load i32, i32* %1, align 4
  %16 = load i32, i32* %6, align 4
  %17 = mul nsw i32 %16, 10000
  %18 = sub nsw i32 %15, %17
  %19 = load i32, i32* %5, align 4
  %20 = mul nsw i32 %19, 1000
  %21 = sub nsw i32 %18, %20
  %22 = sdiv i32 %21, 100
  store i32 %22, i32* %4, align 4
  %23 = load i32, i32* %1, align 4
  %24 = load i32, i32* %6, align 4
  %25 = mul nsw i32 %24, 10000
  %26 = sub nsw i32 %23, %25
  %27 = load i32, i32* %5, align 4
  %28 = mul nsw i32 %27, 1000
  %29 = sub nsw i32 %26, %28
  %30 = load i32, i32* %4, align 4
  %31 = mul nsw i32 %30, 100
  %32 = sub nsw i32 %29, %31
  %33 = sdiv i32 %32, 10
  store i32 %33, i32* %3, align 4
  %34 = load i32, i32* %1, align 4
  %35 = load i32, i32* %6, align 4
  %36 = mul nsw i32 %35, 10000
  %37 = sub nsw i32 %34, %36
  %38 = load i32, i32* %5, align 4
  %39 = mul nsw i32 %38, 1000
  %40 = sub nsw i32 %37, %39
  %41 = load i32, i32* %4, align 4
  %42 = mul nsw i32 %41, 100
  %43 = sub nsw i32 %40, %42
  %44 = load i32, i32* %3, align 4
  %45 = mul nsw i32 %44, 10
  %46 = sub nsw i32 %43, %45
  store i32 %46, i32* %2, align 4
  %47 = load i32, i32* %6, align 4
  %48 = icmp eq i32 %47, 0
  br i1 %48, label %49, label %91

49:                                               ; preds = %0
  %50 = load i32, i32* %5, align 4
  %51 = icmp eq i32 %50, 0
  br i1 %51, label %52, label %78

52:                                               ; preds = %49
  %53 = load i32, i32* %4, align 4
  %54 = icmp eq i32 %53, 0
  br i1 %54, label %55, label %68

55:                                               ; preds = %52
  %56 = load i32, i32* %3, align 4
  %57 = icmp eq i32 %56, 0
  br i1 %57, label %58, label %61

58:                                               ; preds = %55
  %59 = load i32, i32* %1, align 4
  %60 = call i32 (i8*, ...) @printf(i8* getelementptr inbounds ([4 x i8], [4 x i8]* @.str.1, i64 0, i64 0), i32 %59)
  br label %67

61:                                               ; preds = %55
  %62 = load i32, i32* %2, align 4
  %63 = mul nsw i32 10, %62
  %64 = load i32, i32* %3, align 4
  %65 = add nsw i32 %63, %64
  %66 = call i32 (i8*, ...) @printf(i8* getelementptr inbounds ([4 x i8], [4 x i8]* @.str.1, i64 0, i64 0), i32 %65)
  br label %67

67:                                               ; preds = %61, %58
  br label %77

68:                                               ; preds = %52
  %69 = load i32, i32* %2, align 4
  %70 = mul nsw i32 100, %69
  %71 = load i32, i32* %3, align 4
  %72 = mul nsw i32 10, %71
  %73 = add nsw i32 %70, %72
  %74 = load i32, i32* %4, align 4
  %75 = add nsw i32 %73, %74
  %76 = call i32 (i8*, ...) @printf(i8* getelementptr inbounds ([4 x i8], [4 x i8]* @.str.1, i64 0, i64 0), i32 %75)
  br label %77

77:                                               ; preds = %68, %67
  br label %90

78:                                               ; preds = %49
  %79 = load i32, i32* %2, align 4
  %80 = mul nsw i32 1000, %79
  %81 = load i32, i32* %3, align 4
  %82 = mul nsw i32 100, %81
  %83 = add nsw i32 %80, %82
  %84 = load i32, i32* %4, align 4
  %85 = mul nsw i32 10, %84
  %86 = add nsw i32 %83, %85
  %87 = load i32, i32* %5, align 4
  %88 = add nsw i32 %86, %87
  %89 = call i32 (i8*, ...) @printf(i8* getelementptr inbounds ([4 x i8], [4 x i8]* @.str.1, i64 0, i64 0), i32 %88)
  br label %90

90:                                               ; preds = %78, %77
  br label %106

91:                                               ; preds = %0
  %92 = load i32, i32* %2, align 4
  %93 = mul nsw i32 10000, %92
  %94 = load i32, i32* %3, align 4
  %95 = mul nsw i32 1000, %94
  %96 = add nsw i32 %93, %95
  %97 = load i32, i32* %4, align 4
  %98 = mul nsw i32 100, %97
  %99 = add nsw i32 %96, %98
  %100 = load i32, i32* %5, align 4
  %101 = mul nsw i32 10, %100
  %102 = add nsw i32 %99, %101
  %103 = load i32, i32* %6, align 4
  %104 = add nsw i32 %102, %103
  %105 = call i32 (i8*, ...) @printf(i8* getelementptr inbounds ([4 x i8], [4 x i8]* @.str.1, i64 0, i64 0), i32 %104)
  br label %106

106:                                              ; preds = %91, %90
  ret void
}

declare dso_local i32 @__isoc99_scanf(i8*, ...) #1

declare dso_local i32 @printf(i8*, ...) #1


!llvm.module.flags = !{!0}
!llvm.ident = !{!1}

!0 = !{i32 1, !"wchar_size", i32 4}
!1 = !{!"clang version 10.0.0-4ubuntu1 "}
